; ModuleID = '7/940.c'
source_filename = "7/940.c"
target datalayout = "e-m:e-p270:32:32-p271:32:32-p272:64:64-i64:64-f80:128-n8:16:32:64-S128"
target triple = "x86_64-pc-linux-gnu"

@.str = private unnamed_addr constant [3 x i8] c"%s\00", align 1

; Function Attrs: noinline nounwind uwtable
define dso_local i32 @main() #0 {
  %1 = alloca i32, align 4
  %2 = alloca [256 x i8], align 16
  %3 = alloca [256 x i8], align 16
  %4 = alloca [256 x i8], align 16
  %5 = alloca i32, align 4
  %6 = alloca i32, align 4
  %7 = alloca i32, align 4
  %8 = alloca i32, align 4
  %9 = alloca i32, align 4
  store i32 0, i32* %1, align 4
  %10 = getelementptr inbounds [256 x i8], [256 x i8]* %2, i64 0, i64 0
  %11 = call i32 (i8*, ...) @__isoc99_scanf(i8* getelementptr inbounds ([3 x i8], [3 x i8]* @.str, i64 0, i64 0), i8* %10)
  %12 = getelementptr inbounds [256 x i8], [256 x i8]* %3, i64 0, i64 0
  %13 = call i32 (i8*, ...) @__isoc99_scanf(i8* getelementptr inbounds ([3 x i8], [3 x i8]* @.str, i64 0, i64 0), i8* %12)
  %14 = getelementptr inbounds [256 x i8], [256 x i8]* %4, i64 0, i64 0
  %15 = call i32 (i8*, ...) @__isoc99_scanf(i8* getelementptr inbounds ([3 x i8], [3 x i8]* @.str, i64 0, i64 0), i8* %14)
  %16 = getelementptr inbounds [256 x i8], [256 x i8]* %2, i64 0, i64 0
  %17 = call i64 @strlen(i8* %16) #3
  %18 = trunc i64 %17 to i32
  store i32 %18, i32* %8, align 4
  %19 = getelementptr inbounds [256 x i8], [256 x i8]* %3, i64 0, i64 0
  %20 = call i64 @strlen(i8* %19) #3
  %21 = trunc i64 %20 to i32
  store i32 %21, i32* %9, align 4
  store i32 0, i32* %5, align 4
  br label %22

22:                                               ; preds = %82, %0
  %23 = load i32, i32* %5, align 4
  %24 = load i32, i32* %8, align 4
  %25 = load i32, i32* %9, align 4
  %26 = sub nsw i32 %24, %25
  %27 = add nsw i32 %26, 1
  %28 = icmp slt i32 %23, %27
  br i1 %28, label %29, label %85

29:                                               ; preds = %22
  store i32 0, i32* %7, align 4
  %30 = load i32, i32* %5, align 4
  store i32 %30, i32* %6, align 4
  br label %31

31:                                               ; preds = %53, %29
  %32 = load i32, i32* %6, align 4
  %33 = load i32, i32* %5, align 4
  %34 = load i32, i32* %9, align 4
  %35 = add nsw i32 %33, %34
  %36 = icmp slt i32 %32, %35
  br i1 %36, label %37, label %56

37:                                               ; preds = %31
  %38 = load i32, i32* %6, align 4
  %39 = sext i32 %38 to i64
  %40 = getelementptr inbounds [256 x i8], [256 x i8]* %2, i64 0, i64 %39
  %41 = load i8, i8* %40, align 1
  %42 = sext i8 %41 to i32
  %43 = load i32, i32* %6, align 4
  %44 = load i32, i32* %5, align 4
  %45 = sub nsw i32 %43, %44
  %46 = sext i32 %45 to i64
  %47 = getelementptr inbounds [256 x i8], [256 x i8]* %3, i64 0, i64 %46
  %48 = load i8, i8* %47, align 1
  %49 = sext i8 %48 to i32
  %50 = icmp ne i32 %42, %49
  br i1 %50, label %51, label %52

51:                                               ; preds = %37
  store i32 1, i32* %7, align 4
  br label %56

52:                                               ; preds = %37
  br label %53

53:                                               ; preds = %52
  %54 = load i32, i32* %6, align 4
  %55 = add nsw i32 %54, 1
  store i32 %55, i32* %6, align 4
  br label %31

56:                                               ; preds = %51, %31
  %57 = load i32, i32* %7, align 4
  %58 = icmp eq i32 %57, 0
  br i1 %58, label %59, label %81

59:                                               ; preds = %56
  %60 = load i32, i32* %5, align 4
  store i32 %60, i32* %6, align 4
  br label %61

61:                                               ; preds = %77, %59
  %62 = load i32, i32* %6, align 4
  %63 = load i32, i32* %5, align 4
  %64 = load i32, i32* %9, align 4
  %65 = add nsw i32 %63, %64
  %66 = icmp slt i32 %62, %65
  br i1 %66, label %67, label %80

67:                                               ; preds = %61
  %68 = load i32, i32* %6, align 4
  %69 = load i32, i32* %5, align 4
  %70 = sub nsw i32 %68, %69
  %71 = sext i32 %70 to i64
  %72 = getelementptr inbounds [256 x i8], [256 x i8]* %4, i64 0, i64 %71
  %73 = load i8, i8* %72, align 1
  %74 = load i32, i32* %6, align 4
  %75 = sext i32 %74 to i64
  %76 = getelementptr inbounds [256 x i8], [256 x i8]* %2, i64 0, i64 %75
  store i8 %73, i8* %76, align 1
  br label %77

77:                                               ; preds = %67
  %78 = load i32, i32* %6, align 4
  %79 = add nsw i32 %78, 1
  store i32 %79, i32* %6, align 4
  br label %61

80:                                               ; preds = %61
  br label %85

81:                                               ; preds = %56
  br label %82

82:                                               ; preds = %81
  %83 = load i32, i32* %5, align 4
  %84 = add nsw i32 %83, 1
  store i32 %84, i32* %5, align 4
  br label %22

85:                                               ; preds = %80, %22
  %86 = getelementptr inbounds [256 x i8], [256 x i8]* %2, i64 0, i64 0
  %87 = call i32 @puts(i8* %86)
  ret i32 0
}

declare dso_local i32 @__isoc99_scanf(i8*, ...) #1

; Function Attrs: nounwind readonly
declare dso_local i64 @strlen(i8*) #2

declare dso_local i32 @puts(i8*) #1


!llvm.module.flags = !{!0}
!llvm.ident = !{!1}

!0 = !{i32 1, !"wchar_size", i32 4}
!1 = !{!"clang version 10.0.0-4ubuntu1 "}
