; ModuleID = 'source-C-CXX/6/940.c'
source_filename = "source-C-CXX/6/940.c"
target datalayout = "e-m:e-p270:32:32-p271:32:32-p272:64:64-i64:64-f80:128-n8:16:32:64-S128"
target triple = "x86_64-pc-linux-gnu"

@.str = private unnamed_addr constant [3 x i8] c"%s\00", align 1

; Function Attrs: nofree nounwind sspstrong uwtable
define dso_local i32 @main() local_unnamed_addr #0 {
  %1 = alloca [256 x i8], align 16
  %2 = alloca [256 x i8], align 16
  %3 = alloca [256 x i8], align 16
  %4 = getelementptr inbounds [256 x i8], [256 x i8]* %3, i64 0, i64 0
  %5 = getelementptr inbounds [256 x i8], [256 x i8]* %1, i64 0, i64 0
  call void @llvm.lifetime.start.p0i8(i64 256, i8* nonnull %5) #6
  %6 = getelementptr inbounds [256 x i8], [256 x i8]* %2, i64 0, i64 0
  call void @llvm.lifetime.start.p0i8(i64 256, i8* nonnull %6) #6
  %7 = getelementptr inbounds [256 x i8], [256 x i8]* %3, i64 0, i64 0
  call void @llvm.lifetime.start.p0i8(i64 256, i8* nonnull %7) #6
  %8 = call i32 (i8*, ...) @__isoc99_scanf(i8* getelementptr inbounds ([3 x i8], [3 x i8]* @.str, i64 0, i64 0), i8* nonnull %5)
  %9 = call i32 (i8*, ...) @__isoc99_scanf(i8* getelementptr inbounds ([3 x i8], [3 x i8]* @.str, i64 0, i64 0), i8* nonnull %6)
  %10 = call i32 (i8*, ...) @__isoc99_scanf(i8* getelementptr inbounds ([3 x i8], [3 x i8]* @.str, i64 0, i64 0), i8* nonnull %7)
  %11 = call i64 @strlen(i8* noundef nonnull %5) #7
  %12 = trunc i64 %11 to i32
  %13 = call i64 @strlen(i8* noundef nonnull %6) #7
  %14 = trunc i64 %13 to i32
  %15 = icmp slt i32 %12, %14
  br i1 %15, label %51, label %16

16:                                               ; preds = %0
  %17 = add i64 %11, 1
  %18 = sub i64 %17, %13
  %19 = and i64 %18, 4294967295
  %20 = icmp sgt i32 %14, 0
  br label %21

21:                                               ; preds = %16, %48
  %22 = phi i64 [ 0, %16 ], [ %49, %48 ]
  %23 = trunc i64 %22 to i32
  %24 = add nsw i32 %23, %14
  br i1 %20, label %39, label %51

25:                                               ; preds = %39
  %26 = trunc i64 %47 to i32
  %27 = icmp sgt i32 %24, %26
  br i1 %27, label %39, label %28, !llvm.loop !5

28:                                               ; preds = %25
  %29 = trunc i64 %22 to i32
  br i1 %20, label %30, label %51

30:                                               ; preds = %28
  %31 = and i64 %22, 4294967295
  %32 = getelementptr [256 x i8], [256 x i8]* %1, i64 0, i64 %31
  %33 = add nuw i32 %29, 1
  %34 = call i32 @llvm.smax.i32(i32 %24, i32 %33)
  %35 = xor i32 %29, -1
  %36 = add i32 %34, %35
  %37 = zext i32 %36 to i64
  %38 = add nuw nsw i64 %37, 1
  call void @llvm.memcpy.p0i8.p0i8.i64(i8* noundef nonnull align 1 dereferenceable(1) %32, i8* noundef nonnull align 16 %4, i64 %38, i1 false)
  br label %51

39:                                               ; preds = %21, %25
  %40 = phi i64 [ %47, %25 ], [ %22, %21 ]
  %41 = getelementptr inbounds [256 x i8], [256 x i8]* %1, i64 0, i64 %40
  %42 = load i8, i8* %41, align 1, !tbaa !7
  %43 = sub nuw nsw i64 %40, %22
  %44 = getelementptr inbounds [256 x i8], [256 x i8]* %2, i64 0, i64 %43
  %45 = load i8, i8* %44, align 1, !tbaa !7
  %46 = icmp eq i8 %42, %45
  %47 = add nuw nsw i64 %40, 1
  br i1 %46, label %25, label %48

48:                                               ; preds = %39
  %49 = add nuw nsw i64 %22, 1
  %50 = icmp eq i64 %49, %19
  br i1 %50, label %51, label %21, !llvm.loop !10

51:                                               ; preds = %21, %48, %30, %0, %28
  %52 = call i32 @puts(i8* nonnull %5)
  call void @llvm.lifetime.end.p0i8(i64 256, i8* nonnull %7) #6
  call void @llvm.lifetime.end.p0i8(i64 256, i8* nonnull %6) #6
  call void @llvm.lifetime.end.p0i8(i64 256, i8* nonnull %5) #6
  ret i32 0
}

; Function Attrs: argmemonly mustprogress nofree nosync nounwind willreturn
declare void @llvm.lifetime.start.p0i8(i64 immarg, i8* nocapture) #1

; Function Attrs: nofree nounwind
declare noundef i32 @__isoc99_scanf(i8* nocapture noundef readonly, ...) local_unnamed_addr #2

; Function Attrs: argmemonly mustprogress nofree nounwind readonly willreturn
declare i64 @strlen(i8* nocapture) local_unnamed_addr #3

; Function Attrs: nofree nounwind
declare noundef i32 @puts(i8* nocapture noundef readonly) local_unnamed_addr #2

; Function Attrs: argmemonly mustprogress nofree nosync nounwind willreturn
declare void @llvm.lifetime.end.p0i8(i64 immarg, i8* nocapture) #1

; Function Attrs: nofree nosync nounwind readnone speculatable willreturn
declare i32 @llvm.smax.i32(i32, i32) #4

; Function Attrs: argmemonly nofree nounwind willreturn
declare void @llvm.memcpy.p0i8.p0i8.i64(i8* noalias nocapture writeonly, i8* noalias nocapture readonly, i64, i1 immarg) #5


!llvm.module.flags = !{!0, !1, !2, !3}
!llvm.ident = !{!4}

!0 = !{i32 1, !"wchar_size", i32 4}
!1 = !{i32 7, !"PIC Level", i32 2}
!2 = !{i32 7, !"PIE Level", i32 2}
!3 = !{i32 7, !"uwtable", i32 1}
!4 = !{!"clang version 13.0.0"}
!5 = distinct !{!5, !6}
!6 = !{!"llvm.loop.mustprogress"}
!7 = !{!8, !8, i64 0}
!8 = !{!"omnipotent char", !9, i64 0}
!9 = !{!"Simple C/C++ TBAA"}
!10 = distinct !{!10, !6}
